target datalayout = "e-m:e-p270:32:32-p271:32:32-p272:64:64-i64:64-i128:128-f80:128-n8:16:32:64-S128"
target triple = "x86_64-unknown-linux-gnu"

%class.small_object_allocator = type { [32 x ptr], [32 x ptr], i64 }
%"struct.small_object_allocator::chunk" = type { ptr, ptr, [8176 x i8] }

; Function Attrs: mustprogress uwtable
define linkonce_odr hidden void @_Z7deallocIN22small_object_allocator5chunkEEvPT_(ptr noundef %ptr) #5 comdat {
entry:
  %ptr.addr = alloca ptr, align 8
  store ptr %ptr, ptr %ptr.addr, align 8
  %0 = load ptr, ptr %ptr.addr, align 8
  %cmp = icmp eq ptr %0, null
  br i1 %cmp, label %if.then, label %if.end

if.then:                                          ; preds = %entry
  br label %return

if.end:                                           ; preds = %entry
  %1 = load ptr, ptr %ptr.addr, align 8
  call void @_ZN6memory10deallocateEPv(ptr noundef %1)
  br label %return

return:                                           ; preds = %if.end, %if.then
  ret void
}

; Function Attrs: mustprogress nounwind uwtable
define hidden void @_ZN22small_object_allocatorD2Ev(ptr noundef nonnull align 8 dereferenceable(520) %this) unnamed_addr #4 align 2 personality ptr @__gxx_personality_v0 {
entry:
  %this.addr = alloca ptr, align 8
  %i = alloca i32, align 4
  %c = alloca ptr, align 8
  %next = alloca ptr, align 8
  store ptr %this, ptr %this.addr, align 8
  %this1 = load ptr, ptr %this.addr, align 8
  store i32 0, ptr %i, align 4
  br label %for.cond

for.cond:                                         ; preds = %for.inc, %entry
  %0 = load i32, ptr %i, align 4
  %cmp = icmp ult i32 %0, 32
  br i1 %cmp, label %for.body, label %for.end

for.body:                                         ; preds = %for.cond
  %m_chunks = getelementptr inbounds %class.small_object_allocator, ptr %this1, i32 0, i32 0
  %1 = load i32, ptr %i, align 4
  %idxprom = zext i32 %1 to i64
  %arrayidx = getelementptr inbounds [32 x ptr], ptr %m_chunks, i64 0, i64 %idxprom
  %2 = load ptr, ptr %arrayidx, align 8
  store ptr %2, ptr %c, align 8
  br label %while.cond

while.cond:                                       ; preds = %invoke.cont, %for.body
  %3 = load ptr, ptr %c, align 8
  %tobool = icmp ne ptr %3, null
  br i1 %tobool, label %while.body, label %while.end

while.body:                                       ; preds = %while.cond
  %4 = load ptr, ptr %c, align 8
  %m_next = getelementptr inbounds %"struct.small_object_allocator::chunk", ptr %4, i32 0, i32 0
  %5 = load ptr, ptr %m_next, align 8
  store ptr %5, ptr %next, align 8
  %6 = load ptr, ptr %c, align 8
  invoke void @_Z7deallocIN22small_object_allocator5chunkEEvPT_(ptr noundef %6)
          to label %invoke.cont unwind label %terminate.lpad

invoke.cont:                                      ; preds = %while.body
  %7 = load ptr, ptr %next, align 8
  store ptr %7, ptr %c, align 8
  br label %while.cond, !llvm.loop !6

while.end:                                        ; preds = %while.cond
  br label %for.inc

for.inc:                                          ; preds = %while.end
  %8 = load i32, ptr %i, align 4
  %inc = add i32 %8, 1
  store i32 %inc, ptr %i, align 4
  br label %for.cond, !llvm.loop !7

for.end:                                          ; preds = %for.cond
  ret void

terminate.lpad:                                   ; preds = %while.body
  %9 = landingpad { ptr, i32 }
          catch ptr null
  %10 = extractvalue { ptr, i32 } %9, 0
  call void @__clang_call_terminate(ptr %10) #11
  unreachable
}