; Function Attrs: mustprogress nounwind uwtable
define hidden void @_ZN22small_object_allocatorD2Ev(ptr nocapture noundef nonnull readonly align 8 dereferenceable(520) %this) unnamed_addr #4 align 2 personality ptr @__gxx_personality_v0 {
entry:
  br label %for.body

for.body:                                         ; preds = %entry, %for.inc
  %indvars.iv = phi i64 [ 0, %entry ], [ %indvars.iv.next, %for.inc ]
  %arrayidx = getelementptr inbounds [32 x ptr], ptr %this, i64 0, i64 %indvars.iv
  %0 = load ptr, ptr %arrayidx, align 8
  br label %while.cond

while.cond:                                       ; preds = %if.end.i, %for.body
  %c.0 = phi ptr [ %0, %for.body ], [ %1, %if.end.i ]
  %tobool.not = icmp eq ptr %c.0, null
  br i1 %tobool.not, label %for.inc, label %if.end.i

if.end.i:                                         ; preds = %while.cond
  %1 = load ptr, ptr %c.0, align 8
  invoke void @_ZN6memory10deallocateEPv(ptr noundef nonnull %c.0)
          to label %while.cond unwind label %terminate.lpad

for.inc:                                          ; preds = %while.cond
  %indvars.iv.next = add nuw nsw i64 %indvars.iv, 1
  %exitcond.not = icmp eq i64 %indvars.iv.next, 32
  br i1 %exitcond.not, label %for.end, label %for.body, !llvm.loop !4

for.end:                                          ; preds = %for.inc
  ret void

terminate.lpad:                                   ; preds = %if.end.i
  %2 = landingpad { ptr, i32 }
          catch ptr null
  %3 = extractvalue { ptr, i32 } %2, 0
  tail call void @__clang_call_terminate(ptr %3) #15
  unreachable
}